#include <math.h>
#include <stdio.h>
#include <stdlib.h>
#include <string.h>

void main()
{
  int a[300][300],i,j,m,n,max,maxi=0,maxj=0,l=1,s=0;
  scanf("%d,%d",&m,&n);
  for(i=0;i<m;i++)
  for(j=0;j<n;j++)
  scanf("%d",&a[i][j]);
  for(i=0;i<m;i++)
  {  max=a[i][0];
     for(j=0;j<n;j++)
      if(max<a[i][j])
	    {max=a[i][j];
	     maxi=i;
	     maxj=j;
        }
     for(i=0;i<m;i++)
	  if(max>a[i][maxj])
	     l=0;
     if(l==1){printf("%d+%d",maxi,maxj);s++;}  
   }
   if(s==0)printf("No");
}